target datalayout = "e-m:e-p270:32:32-p271:32:32-p272:64:64-i64:64-i128:128-f80:128-n8:16:32:64-S128"
target triple = "x86_64-pc-linux-gnu"

%struct.OSSL_TIME = type { i64 }
%struct.ssl_st = type { i32, ptr, ptr, ptr, %struct.CRYPTO_REF_COUNT, ptr, %struct.crypto_ex_data_st }
%struct.CRYPTO_REF_COUNT = type { i32 }
%struct.crypto_ex_data_st = type { ptr, ptr }
%struct.ssl_connection_st = type { %struct.ssl_st, ptr, i32, ptr, ptr, ptr, i32, ptr, i32, i32, i32, i32, %struct.OSSL_TIME, %struct.OSSL_TIME, %struct.ossl_statem_st, i32, ptr, ptr, i64, i64, i64, %struct.ossl_quic_tls_callbacks_st, ptr, ptr, %struct.anon, ptr, ptr, ptr, i32, ptr, %struct.ssl_dane_st, ptr, ptr, ptr, ptr, i32, [64 x i8], [64 x i8], [64 x i8], [64 x i8], [64 x i8], [64 x i8], [64 x i8], [64 x i8], [64 x i8], [64 x i8], [64 x i8], [64 x i8], ptr, [64 x i8], i64, i32, i64, [32 x i8], ptr, ptr, ptr, i64, ptr, [32 x i8], i64, i32, ptr, ptr, i32, i32, ptr, ptr, ptr, ptr, ptr, i64, ptr, ptr, i64, i32, i32, i32, i64, i32, i32, i64, i64, i64, %struct.anon.1, ptr, i32, ptr, ptr, ptr, i32, ptr, ptr, ptr, i32, i32, i32, i32, ptr, i64, i32, ptr, %struct.srp_ctx_st, ptr, %struct.record_layer_st, ptr, ptr, ptr, ptr, i64, i32, i32, i32, i64, i64, i64, ptr, ptr, ptr, ptr, ptr, i64, ptr, i64, ptr, i64 }
%struct.ossl_statem_st = type { i32, i32, i32, i32, i32, i32, i32, i32, i32, i32, i32, i32, i32, ptr, ptr, ptr, i8 }
%struct.ossl_quic_tls_callbacks_st = type { ptr, ptr, ptr, ptr, ptr, ptr }
%struct.anon = type { i64, [32 x i8], [32 x i8], ptr, ptr, i32, i32, i32, i32, [2 x i8], i32, i32, i32, i32, %struct.anon.0, [64 x i8], i64, [64 x i8], i64, i32, i32, ptr, i64, ptr, i64, i32, i8, i8, i16, ptr, i16 }
%struct.anon.0 = type { [128 x i8], i64, [128 x i8], i64, i64, i32, ptr, ptr, [4 x ptr], [4 x i16], i64, i32, ptr, i64, ptr, i64, ptr, ptr, ptr, i32, i64, ptr, i32, ptr, i64, ptr, i64, ptr, i64, ptr, ptr, ptr, ptr, i64, i64, ptr, ptr, i32, i32, i32, i32 }
%struct.ssl_dane_st = type { ptr, ptr, ptr, ptr, ptr, i32, i32, i32, i64 }
%struct.anon.1 = type { [29 x i8], ptr, ptr, ptr, i32, ptr, i16, i32, %struct.anon.2, i32, i32, i64, ptr, i64, ptr, i64, ptr, i64, ptr, i64, ptr, i64, ptr, ptr, ptr, ptr, ptr, ptr, ptr, i64, ptr, i64, i32, i32, i32, i32, ptr, i64, i32, i8, i32, [4 x i32], i32, i8, i8, i8, i8 }
%struct.anon.2 = type { ptr, ptr, ptr, i64 }
%struct.srp_ctx_st = type { ptr, ptr, ptr, ptr, ptr, ptr, ptr, ptr, ptr, ptr, ptr, ptr, ptr, ptr, i32, i64 }
%struct.record_layer_st = type { ptr, ptr, ptr, ptr, ptr, ptr, ptr, ptr, i64, i32, i64, [4 x i8], i64, i64, i8, ptr, i32, ptr, ptr, ptr, i64, i64, i64, i64, [32 x %struct.tls_record_st] }
%struct.tls_record_st = type { ptr, i32, i8, ptr, ptr, i64, i64, i16, [8 x i8] }
%struct.ssl_ctx_st = type { ptr, ptr, ptr, ptr, ptr, ptr, ptr, i64, ptr, ptr, i32, %struct.OSSL_TIME, ptr, ptr, ptr, %struct.anon.3, %struct.CRYPTO_REF_COUNT, ptr, ptr, ptr, ptr, ptr, ptr, ptr, ptr, ptr, %struct.crypto_ex_data_st, ptr, ptr, ptr, ptr, ptr, ptr, ptr, i64, i32, i32, i32, i64, ptr, ptr, i32, ptr, ptr, i32, i64, [32 x i8], ptr, ptr, ptr, i32, ptr, ptr, ptr, i64, i64, i64, i64, ptr, ptr, ptr, ptr, ptr, %struct.anon.4, ptr, ptr, ptr, ptr, %struct.srp_ctx_st, %struct.dane_ctx_st, ptr, ptr, ptr, ptr, i32, i32, ptr, ptr, i64, i64, ptr, ptr, ptr, i64, ptr, ptr, i32, ptr, ptr, ptr, [14 x i32], [24 x ptr], [14 x ptr], [14 x i64], i64, ptr, ptr, ptr, i64, i64, ptr, i64, i64, i32, i32, i32, i32, ptr, i64, ptr, i64, i64, ptr, ptr }
%struct.anon.3 = type { i32, i32, i32, i32, i32, i32, i32, i32, i32, i32, i32 }
%struct.anon.4 = type { ptr, ptr, [16 x i8], ptr, ptr, ptr, ptr, ptr, i32, i8, i64, ptr, i64, ptr, i64, ptr, i64, ptr, ptr, i64, ptr, ptr, ptr, i64, ptr, ptr, ptr, ptr, [32 x i8] }
%struct.dane_ctx_st = type { ptr, ptr, i8, i64 }
%struct.cert_st = type { ptr, ptr, ptr, i32, i32, ptr, i64, ptr, i64, ptr, i64, ptr, i64, ptr, ptr, ptr, ptr, %struct.custom_ext_methods, ptr, i32, ptr, ptr, %struct.CRYPTO_REF_COUNT }
%struct.custom_ext_methods = type { ptr, i64 }
%struct.sigalg_lookup_st = type { ptr, i16, i32, i32, i32, i32, i32, i32, i32 }

; Function Attrs: nounwind uwtable
define internal ptr @tls1_lookup_sigalg(ptr noundef %0, i16 noundef zeroext %1) #1 {
  %3 = alloca ptr, align 8
  %4 = alloca ptr, align 8
  %5 = alloca i16, align 2
  %6 = alloca i64, align 8
  %7 = alloca ptr, align 8
  %8 = alloca i32, align 4
  store ptr %0, ptr %4, align 8, !tbaa !25
  store i16 %1, ptr %5, align 2, !tbaa !100
  call void @llvm.lifetime.start.p0(i64 8, ptr %6) #8
  call void @llvm.lifetime.start.p0(i64 8, ptr %7) #8
  store i64 0, ptr %6, align 8, !tbaa !3
  %9 = load ptr, ptr %4, align 8, !tbaa !25
  %10 = getelementptr inbounds nuw %struct.ssl_connection_st, ptr %9, i32 0, i32 0
  %11 = getelementptr inbounds nuw %struct.ssl_st, ptr %10, i32 0, i32 1
  %12 = load ptr, ptr %11, align 8, !tbaa !137
  %13 = getelementptr inbounds nuw %struct.ssl_ctx_st, ptr %12, i32 0, i32 95
  %14 = load ptr, ptr %13, align 8, !tbaa !224
  store ptr %14, ptr %7, align 8, !tbaa !201
  br label %15

15:                                               ; preds = %41, %2
  %16 = load i64, ptr %6, align 8, !tbaa !3
  %17 = load ptr, ptr %4, align 8, !tbaa !25
  %18 = getelementptr inbounds nuw %struct.ssl_connection_st, ptr %17, i32 0, i32 0
  %19 = getelementptr inbounds nuw %struct.ssl_st, ptr %18, i32 0, i32 1
  %20 = load ptr, ptr %19, align 8, !tbaa !137
  %21 = getelementptr inbounds nuw %struct.ssl_ctx_st, ptr %20, i32 0, i32 94
  %22 = load i64, ptr %21, align 8, !tbaa !226
  %23 = icmp ult i64 %16, %22
  br i1 %23, label %24, label %46

24:                                               ; preds = %15
  %25 = load ptr, ptr %7, align 8, !tbaa !201
  %26 = getelementptr inbounds nuw %struct.sigalg_lookup_st, ptr %25, i32 0, i32 1
  %27 = load i16, ptr %26, align 8, !tbaa !218
  %28 = zext i16 %27 to i32
  %29 = load i16, ptr %5, align 2, !tbaa !100
  %30 = zext i16 %29 to i32
  %31 = icmp eq i32 %28, %30
  br i1 %31, label %32, label %40

32:                                               ; preds = %24
  %33 = load ptr, ptr %7, align 8, !tbaa !201
  %34 = getelementptr inbounds nuw %struct.sigalg_lookup_st, ptr %33, i32 0, i32 8
  %35 = load i32, ptr %34, align 4, !tbaa !208
  %36 = icmp ne i32 %35, 0
  br i1 %36, label %38, label %37

37:                                               ; preds = %32
  store ptr null, ptr %3, align 8
  store i32 1, ptr %8, align 4
  br label %47

38:                                               ; preds = %32
  %39 = load ptr, ptr %7, align 8, !tbaa !201
  store ptr %39, ptr %3, align 8
  store i32 1, ptr %8, align 4
  br label %47

40:                                               ; preds = %24
  br label %41

41:                                               ; preds = %40
  %42 = load ptr, ptr %7, align 8, !tbaa !201
  %43 = getelementptr inbounds nuw %struct.sigalg_lookup_st, ptr %42, i32 1
  store ptr %43, ptr %7, align 8, !tbaa !201
  %44 = load i64, ptr %6, align 8, !tbaa !3
  %45 = add i64 %44, 1
  store i64 %45, ptr %6, align 8, !tbaa !3
  br label %15, !llvm.loop !245

46:                                               ; preds = %15
  store ptr null, ptr %3, align 8
  store i32 1, ptr %8, align 4
  br label %47

47:                                               ; preds = %46, %38, %37
  call void @llvm.lifetime.end.p0(i64 8, ptr %7) #8
  call void @llvm.lifetime.end.p0(i64 8, ptr %6) #8
  %48 = load ptr, ptr %3, align 8
  ret ptr %48
}

; Function Attrs: nounwind uwtable
define i32 @tls_check_sigalg_curve(ptr noundef %0, i32 noundef %1) #1 {
  %3 = alloca i32, align 4
  %4 = alloca ptr, align 8
  %5 = alloca i32, align 4
  %6 = alloca ptr, align 8
  %7 = alloca i64, align 8
  %8 = alloca i64, align 8
  %9 = alloca ptr, align 8
  %10 = alloca i32, align 4
  store ptr %0, ptr %4, align 8, !tbaa !25
  store i32 %1, ptr %5, align 4, !tbaa !128
  call void @llvm.lifetime.start.p0(i64 8, ptr %6) #8
  call void @llvm.lifetime.start.p0(i64 8, ptr %7) #8
  call void @llvm.lifetime.start.p0(i64 8, ptr %8) #8
  %11 = load ptr, ptr %4, align 8, !tbaa !25
  %12 = getelementptr inbounds nuw %struct.ssl_connection_st, ptr %11, i32 0, i32 48
  %13 = load ptr, ptr %12, align 8, !tbaa !138
  %14 = getelementptr inbounds nuw %struct.cert_st, ptr %13, i32 0, i32 9
  %15 = load ptr, ptr %14, align 8, !tbaa !242
  %16 = icmp ne ptr %15, null
  br i1 %16, label %17, label %28

17:                                               ; preds = %2
  %18 = load ptr, ptr %4, align 8, !tbaa !25
  %19 = getelementptr inbounds nuw %struct.ssl_connection_st, ptr %18, i32 0, i32 48
  %20 = load ptr, ptr %19, align 8, !tbaa !138
  %21 = getelementptr inbounds nuw %struct.cert_st, ptr %20, i32 0, i32 9
  %22 = load ptr, ptr %21, align 8, !tbaa !242
  store ptr %22, ptr %6, align 8, !tbaa !142
  %23 = load ptr, ptr %4, align 8, !tbaa !25
  %24 = getelementptr inbounds nuw %struct.ssl_connection_st, ptr %23, i32 0, i32 48
  %25 = load ptr, ptr %24, align 8, !tbaa !138
  %26 = getelementptr inbounds nuw %struct.cert_st, ptr %25, i32 0, i32 10
  %27 = load i64, ptr %26, align 8, !tbaa !243
  store i64 %27, ptr %7, align 8, !tbaa !3
  br label %41

28:                                               ; preds = %2
  %29 = load ptr, ptr %4, align 8, !tbaa !25
  %30 = getelementptr inbounds nuw %struct.ssl_connection_st, ptr %29, i32 0, i32 0
  %31 = getelementptr inbounds nuw %struct.ssl_st, ptr %30, i32 0, i32 1
  %32 = load ptr, ptr %31, align 8, !tbaa !137
  %33 = getelementptr inbounds nuw %struct.ssl_ctx_st, ptr %32, i32 0, i32 96
  %34 = load ptr, ptr %33, align 8, !tbaa !225
  store ptr %34, ptr %6, align 8, !tbaa !142
  %35 = load ptr, ptr %4, align 8, !tbaa !25
  %36 = getelementptr inbounds nuw %struct.ssl_connection_st, ptr %35, i32 0, i32 0
  %37 = getelementptr inbounds nuw %struct.ssl_st, ptr %36, i32 0, i32 1
  %38 = load ptr, ptr %37, align 8, !tbaa !137
  %39 = getelementptr inbounds nuw %struct.ssl_ctx_st, ptr %38, i32 0, i32 94
  %40 = load i64, ptr %39, align 8, !tbaa !226
  store i64 %40, ptr %7, align 8, !tbaa !3
  br label %41

41:                                               ; preds = %28, %17
  store i64 0, ptr %8, align 8, !tbaa !3
  br label %42

42:                                               ; preds = %77, %41
  %43 = load i64, ptr %8, align 8, !tbaa !3
  %44 = load i64, ptr %7, align 8, !tbaa !3
  %45 = icmp ult i64 %43, %44
  br i1 %45, label %46, label %80

46:                                               ; preds = %42
  call void @llvm.lifetime.start.p0(i64 8, ptr %9) #8
  %47 = load ptr, ptr %4, align 8, !tbaa !25
  %48 = load ptr, ptr %6, align 8, !tbaa !142
  %49 = load i64, ptr %8, align 8, !tbaa !3
  %50 = getelementptr inbounds nuw i16, ptr %48, i64 %49
  %51 = load i16, ptr %50, align 2, !tbaa !100
  %52 = call ptr @tls1_lookup_sigalg(ptr noundef %47, i16 noundef zeroext %51)
  store ptr %52, ptr %9, align 8, !tbaa !201
  %53 = load ptr, ptr %9, align 8, !tbaa !201
  %54 = icmp eq ptr %53, null
  br i1 %54, label %55, label %56

55:                                               ; preds = %46
  store i32 4, ptr %10, align 4
  br label %74

56:                                               ; preds = %46
  %57 = load ptr, ptr %9, align 8, !tbaa !201
  %58 = getelementptr inbounds nuw %struct.sigalg_lookup_st, ptr %57, i32 0, i32 4
  %59 = load i32, ptr %58, align 4, !tbaa !209
  %60 = icmp eq i32 %59, 408
  br i1 %60, label %61, label %73

61:                                               ; preds = %56
  %62 = load ptr, ptr %9, align 8, !tbaa !201
  %63 = getelementptr inbounds nuw %struct.sigalg_lookup_st, ptr %62, i32 0, i32 7
  %64 = load i32, ptr %63, align 8, !tbaa !222
  %65 = icmp ne i32 %64, 0
  br i1 %65, label %66, label %73

66:                                               ; preds = %61
  %67 = load i32, ptr %5, align 4, !tbaa !128
  %68 = load ptr, ptr %9, align 8, !tbaa !201
  %69 = getelementptr inbounds nuw %struct.sigalg_lookup_st, ptr %68, i32 0, i32 7
  %70 = load i32, ptr %69, align 8, !tbaa !222
  %71 = icmp eq i32 %67, %70
  br i1 %71, label %72, label %73

72:                                               ; preds = %66
  store i32 1, ptr %3, align 4
  store i32 1, ptr %10, align 4
  br label %74

73:                                               ; preds = %66, %61, %56
  store i32 0, ptr %10, align 4
  br label %74

74:                                               ; preds = %73, %72, %55
  call void @llvm.lifetime.end.p0(i64 8, ptr %9) #8
  %75 = load i32, ptr %10, align 4
  switch i32 %75, label %81 [
    i32 0, label %76
    i32 4, label %77
  ]

76:                                               ; preds = %74
  br label %77

77:                                               ; preds = %76, %74
  %78 = load i64, ptr %8, align 8, !tbaa !3
  %79 = add i64 %78, 1
  store i64 %79, ptr %8, align 8, !tbaa !3
  br label %42, !llvm.loop !244

80:                                               ; preds = %42
  store i32 0, ptr %3, align 4
  store i32 1, ptr %10, align 4
  br label %81

81:                                               ; preds = %80, %74
  call void @llvm.lifetime.end.p0(i64 8, ptr %8) #8
  call void @llvm.lifetime.end.p0(i64 8, ptr %7) #8
  call void @llvm.lifetime.end.p0(i64 8, ptr %6) #8
  %82 = load i32, ptr %3, align 4
  ret i32 %82
}