; Function Attrs: nofree norecurse nosync nounwind memory(read, inaccessiblemem: none) uwtable
define range(i32 0, 2) i32 @tls_check_sigalg_curve(ptr noundef readonly captures(none) %0, i32 noundef %1) local_unnamed_addr #5 {
  %3 = getelementptr inbounds nuw i8, ptr %0, i64 2176
  %4 = load ptr, ptr %3, align 8, !tbaa !127
  %5 = getelementptr inbounds nuw i8, ptr %4, i64 64
  %6 = load ptr, ptr %5, align 8, !tbaa !209
  %.not = icmp eq ptr %6, null
  br i1 %.not, label %9, label %7

7:                                                ; preds = %2
  %8 = getelementptr inbounds nuw i8, ptr %4, i64 72
  br label %15

9:                                                ; preds = %2
  %10 = getelementptr inbounds nuw i8, ptr %0, i64 8
  %11 = load ptr, ptr %10, align 8, !tbaa !126
  %12 = getelementptr inbounds nuw i8, ptr %11, i64 1648
  %13 = load ptr, ptr %12, align 8, !tbaa !193
  %14 = getelementptr inbounds nuw i8, ptr %11, i64 1632
  br label %15

15:                                               ; preds = %9, %7
  %.020 = phi ptr [ %6, %7 ], [ %13, %9 ]
  %.019.in = phi ptr [ %8, %7 ], [ %14, %9 ]
  %.019 = load i64, ptr %.019.in, align 8, !tbaa !105
  %.not31 = icmp eq i64 %.019, 0
  br i1 %.not31, label %._crit_edge, label %.lr.ph

.lr.ph:                                           ; preds = %15
  %16 = getelementptr i8, ptr %0, i64 8
  %.val = load ptr, ptr %16, align 8, !tbaa !126
  %17 = getelementptr inbounds nuw i8, ptr %.val, i64 1632
  %18 = load i64, ptr %17, align 8, !tbaa !194
  %.not4.i = icmp eq i64 %18, 0
  br i1 %.not4.i, label %._crit_edge, label %.lr.ph.split

.lr.ph.split:                                     ; preds = %.lr.ph
  %19 = getelementptr inbounds nuw i8, ptr %.val, i64 1640
  %20 = load ptr, ptr %19, align 8, !tbaa !192
  br label %.lr.ph.preheader.i

.lr.ph.preheader.i:                               ; preds = %.lr.ph.split, %tls1_lookup_sigalg.exit.thread
  %.01828 = phi i64 [ 0, %.lr.ph.split ], [ %39, %tls1_lookup_sigalg.exit.thread ]
  %21 = getelementptr inbounds nuw i16, ptr %.020, i64 %.01828
  %22 = load i16, ptr %21, align 2, !tbaa !93
  br label %.lr.ph.i

.lr.ph.i:                                         ; preds = %29, %.lr.ph.preheader.i
  %.03.i = phi ptr [ %30, %29 ], [ %20, %.lr.ph.preheader.i ]
  %.092.i = phi i64 [ %31, %29 ], [ 0, %.lr.ph.preheader.i ]
  %23 = getelementptr inbounds nuw i8, ptr %.03.i, i64 8
  %24 = load i16, ptr %23, align 8, !tbaa !187
  %25 = icmp eq i16 %24, %22
  br i1 %25, label %26, label %29

26:                                               ; preds = %.lr.ph.i
  %27 = getelementptr inbounds nuw i8, ptr %.03.i, i64 36
  %28 = load i32, ptr %27, align 4, !tbaa !182
  %.not.i = icmp eq i32 %28, 0
  br i1 %.not.i, label %tls1_lookup_sigalg.exit.thread, label %tls1_lookup_sigalg.exit

29:                                               ; preds = %.lr.ph.i
  %30 = getelementptr inbounds nuw i8, ptr %.03.i, i64 40
  %31 = add nuw i64 %.092.i, 1
  %exitcond.not.i = icmp eq i64 %31, %18
  br i1 %exitcond.not.i, label %tls1_lookup_sigalg.exit.thread, label %.lr.ph.i, !llvm.loop !206

tls1_lookup_sigalg.exit:                          ; preds = %26
  %32 = getelementptr inbounds nuw i8, ptr %.03.i, i64 20
  %33 = load i32, ptr %32, align 4, !tbaa !183
  %34 = icmp eq i32 %33, 408
  br i1 %34, label %35, label %tls1_lookup_sigalg.exit.thread

35:                                               ; preds = %tls1_lookup_sigalg.exit
  %36 = getelementptr inbounds nuw i8, ptr %.03.i, i64 32
  %37 = load i32, ptr %36, align 8, !tbaa !190
  %.not24 = icmp ne i32 %37, 0
  %38 = icmp eq i32 %1, %37
  %or.cond = and i1 %.not24, %38
  br i1 %or.cond, label %._crit_edge, label %tls1_lookup_sigalg.exit.thread

tls1_lookup_sigalg.exit.thread:                   ; preds = %29, %tls1_lookup_sigalg.exit, %35, %26
  %39 = add nuw i64 %.01828, 1
  %exitcond.not = icmp eq i64 %39, %.019
  br i1 %exitcond.not, label %._crit_edge, label %.lr.ph.preheader.i, !llvm.loop !211

._crit_edge:                                      ; preds = %tls1_lookup_sigalg.exit.thread, %35, %.lr.ph, %15
  %.2 = phi i32 [ 0, %15 ], [ 0, %.lr.ph ], [ 1, %35 ], [ 0, %tls1_lookup_sigalg.exit.thread ]
  ret i32 %.2
}